MPLINK 5.08, LINKER
Linker Map File - Created Thu Jan 05 13:08:59 2017

                                 Section Info
                  Section       Type    Address   Location Size(Bytes)
                ---------  ---------  ---------  ---------  ---------
                   .org_1       code   0x000000    program   0x000004
                   .cinit    romdata   0x000004    program   0x000002
                   .org_2       code   0x000008    program   0x000004
                   .org_3       code   0x000018    program   0x00046a
                   .org_4       code   0x000800    program   0x0000e0
.config_300000_BUILD/DEFAULT/PRODUCTION/18F13K5    romdata   0x300000    program   0x000001
.config_300001_BUILD/DEFAULT/PRODUCTION/18F13K5    romdata   0x300001    program   0x000001
.config_300002_BUILD/DEFAULT/PRODUCTION/18F13K5    romdata   0x300002    program   0x000001
.config_300003_BUILD/DEFAULT/PRODUCTION/18F13K5    romdata   0x300003    program   0x000001
.config_300005_BUILD/DEFAULT/PRODUCTION/18F13K5    romdata   0x300005    program   0x000001
.config_300006_BUILD/DEFAULT/PRODUCTION/18F13K5    romdata   0x300006    program   0x000001
.config_300008_BUILD/DEFAULT/PRODUCTION/18F13K5    romdata   0x300008    program   0x000001
.config_300009_BUILD/DEFAULT/PRODUCTION/18F13K5    romdata   0x300009    program   0x000001
.config_30000A_BUILD/DEFAULT/PRODUCTION/18F13K5    romdata   0x30000a    program   0x000001
.config_30000B_BUILD/DEFAULT/PRODUCTION/18F13K5    romdata   0x30000b    program   0x000001
.config_30000C_BUILD/DEFAULT/PRODUCTION/18F13K5    romdata   0x30000c    program   0x000001
.config_30000D_BUILD/DEFAULT/PRODUCTION/18F13K5    romdata   0x30000d    program   0x000001
                   .org_0       code   0xf00000    program   0x000006
                  GPR_VAR      udata   0x000060       data   0x00005f



                              Program Memory Usage 
                               Start         End      
                           ---------   ---------      
                            0x000000    0x000005      
                            0x000008    0x00000b      
                            0x000018    0x000481      
                            0x000800    0x0008df      
                            0x300000    0x300003      
                            0x300005    0x300006      
                            0x300008    0x30000d      
                            0xf00000    0xf00005      
            1382 out of 8472 program addresses used, program memory utilization is 16%



                              Symbols - Sorted by Name
                     Name    Address   Location    Storage File                     
                ---------  ---------  ---------  --------- ---------                
               CANT_WRITE   0x000382    program     static C:\PIC_projects\ASM\Mood_Lamp_V2.1\Mood_Lamp_V2.X\18F13K50.ASM
           CANT_WRITE_PWM   0x00039e    program     static C:\PIC_projects\ASM\Mood_Lamp_V2.1\Mood_Lamp_V2.X\18F13K50.ASM
            CUBIC_HERMITE   0x00024e    program     static C:\PIC_projects\ASM\Mood_Lamp_V2.1\Mood_Lamp_V2.X\18F13K50.ASM
                   DATAEE   0xf00000    program     static C:\PIC_projects\ASM\Mood_Lamp_V2.1\Mood_Lamp_V2.X\18F13K50.ASM
                  EE_READ   0x000430    program     static C:\PIC_projects\ASM\Mood_Lamp_V2.1\Mood_Lamp_V2.X\18F13K50.ASM
                  END_INT   0x00003a    program     static C:\PIC_projects\ASM\Mood_Lamp_V2.1\Mood_Lamp_V2.X\18F13K50.ASM
              FILL_BUFFER   0x00023c    program     static C:\PIC_projects\ASM\Mood_Lamp_V2.1\Mood_Lamp_V2.X\18F13K50.ASM
            FINISH_READ_B   0x00042a    program     static C:\PIC_projects\ASM\Mood_Lamp_V2.1\Mood_Lamp_V2.X\18F13K50.ASM
            FINISH_READ_G   0x000406    program     static C:\PIC_projects\ASM\Mood_Lamp_V2.1\Mood_Lamp_V2.X\18F13K50.ASM
          FINISH_READ_PWM   0x0003be    program     static C:\PIC_projects\ASM\Mood_Lamp_V2.1\Mood_Lamp_V2.X\18F13K50.ASM
            FINISH_READ_R   0x0003e2    program     static C:\PIC_projects\ASM\Mood_Lamp_V2.1\Mood_Lamp_V2.X\18F13K50.ASM
                 GEN_LOOP   0x000240    program     static C:\PIC_projects\ASM\Mood_Lamp_V2.1\Mood_Lamp_V2.X\18F13K50.ASM
               GEN_RANDOM   0x00044a    program     static C:\PIC_projects\ASM\Mood_Lamp_V2.1\Mood_Lamp_V2.X\18F13K50.ASM
                 GET_COEF   0x000318    program     static C:\PIC_projects\ASM\Mood_Lamp_V2.1\Mood_Lamp_V2.X\18F13K50.ASM
                     ISRH   0x000008    program     static C:\PIC_projects\ASM\Mood_Lamp_V2.1\Mood_Lamp_V2.X\18F13K50.ASM
                     ISRL   0x000018    program     static C:\PIC_projects\ASM\Mood_Lamp_V2.1\Mood_Lamp_V2.X\18F13K50.ASM
                 ITTERATE   0x000270    program     static C:\PIC_projects\ASM\Mood_Lamp_V2.1\Mood_Lamp_V2.X\18F13K50.ASM
                  LOW_ISR   0x00001c    program     static C:\PIC_projects\ASM\Mood_Lamp_V2.1\Mood_Lamp_V2.X\18F13K50.ASM
                     MAIN   0x00009c    program     static C:\PIC_projects\ASM\Mood_Lamp_V2.1\Mood_Lamp_V2.X\18F13K50.ASM
            READ_BUFFER_B   0x00040c    program     static C:\PIC_projects\ASM\Mood_Lamp_V2.1\Mood_Lamp_V2.X\18F13K50.ASM
            READ_BUFFER_G   0x0003e8    program     static C:\PIC_projects\ASM\Mood_Lamp_V2.1\Mood_Lamp_V2.X\18F13K50.ASM
          READ_BUFFER_PWM   0x0003a0    program     static C:\PIC_projects\ASM\Mood_Lamp_V2.1\Mood_Lamp_V2.X\18F13K50.ASM
            READ_BUFFER_R   0x0003c4    program     static C:\PIC_projects\ASM\Mood_Lamp_V2.1\Mood_Lamp_V2.X\18F13K50.ASM
             READ_B_ERROR   0x00042e    program     static C:\PIC_projects\ASM\Mood_Lamp_V2.1\Mood_Lamp_V2.X\18F13K50.ASM
             READ_G_ERROR   0x00040a    program     static C:\PIC_projects\ASM\Mood_Lamp_V2.1\Mood_Lamp_V2.X\18F13K50.ASM
           READ_PWM_ERROR   0x0003c2    program     static C:\PIC_projects\ASM\Mood_Lamp_V2.1\Mood_Lamp_V2.X\18F13K50.ASM
             READ_R_ERROR   0x0003e6    program     static C:\PIC_projects\ASM\Mood_Lamp_V2.1\Mood_Lamp_V2.X\18F13K50.ASM
                 RES_VECT   0x000000    program     static C:\PIC_projects\ASM\Mood_Lamp_V2.1\Mood_Lamp_V2.X\18F13K50.ASM
                    START   0x000046    program     static C:\PIC_projects\ASM\Mood_Lamp_V2.1\Mood_Lamp_V2.X\18F13K50.ASM
                TIME_DOWN   0x0001ae    program     static C:\PIC_projects\ASM\Mood_Lamp_V2.1\Mood_Lamp_V2.X\18F13K50.ASM
                  TIME_UP   0x000226    program     static C:\PIC_projects\ASM\Mood_Lamp_V2.1\Mood_Lamp_V2.X\18F13K50.ASM
             WRITE_BUFFER   0x000268    program     static C:\PIC_projects\ASM\Mood_Lamp_V2.1\Mood_Lamp_V2.X\18F13K50.ASM
         WRITE_PWM_BUFFER   0x000384    program     static C:\PIC_projects\ASM\Mood_Lamp_V2.1\Mood_Lamp_V2.X\18F13K50.ASM
        WRITE_RING_BUFFER   0x000368    program     static C:\PIC_projects\ASM\Mood_Lamp_V2.1\Mood_Lamp_V2.X\18F13K50.ASM
             _.org_3_004E   0x00004e    program     static C:\PIC_projects\ASM\Mood_Lamp_V2.1\Mood_Lamp_V2.X\18F13K50.ASM
             _.org_3_0052   0x000052    program     static C:\PIC_projects\ASM\Mood_Lamp_V2.1\Mood_Lamp_V2.X\18F13K50.ASM
             _.org_3_0056   0x000056    program     static C:\PIC_projects\ASM\Mood_Lamp_V2.1\Mood_Lamp_V2.X\18F13K50.ASM
             _.org_3_0286   0x000286    program     static C:\PIC_projects\ASM\Mood_Lamp_V2.1\Mood_Lamp_V2.X\18F13K50.ASM
             _.org_3_02A0   0x0002a0    program     static C:\PIC_projects\ASM\Mood_Lamp_V2.1\Mood_Lamp_V2.X\18F13K50.ASM
             _.org_3_02BA   0x0002ba    program     static C:\PIC_projects\ASM\Mood_Lamp_V2.1\Mood_Lamp_V2.X\18F13K50.ASM
             _.org_3_02D4   0x0002d4    program     static C:\PIC_projects\ASM\Mood_Lamp_V2.1\Mood_Lamp_V2.X\18F13K50.ASM
             _.org_3_02F0   0x0002f0    program     static C:\PIC_projects\ASM\Mood_Lamp_V2.1\Mood_Lamp_V2.X\18F13K50.ASM
             _.org_3_0304   0x000304    program     static C:\PIC_projects\ASM\Mood_Lamp_V2.1\Mood_Lamp_V2.X\18F13K50.ASM
             _.org_3_031A   0x00031a    program     static C:\PIC_projects\ASM\Mood_Lamp_V2.1\Mood_Lamp_V2.X\18F13K50.ASM
             _.org_3_03A2   0x0003a2    program     static C:\PIC_projects\ASM\Mood_Lamp_V2.1\Mood_Lamp_V2.X\18F13K50.ASM
             _.org_3_03C6   0x0003c6    program     static C:\PIC_projects\ASM\Mood_Lamp_V2.1\Mood_Lamp_V2.X\18F13K50.ASM
             _.org_3_03EA   0x0003ea    program     static C:\PIC_projects\ASM\Mood_Lamp_V2.1\Mood_Lamp_V2.X\18F13K50.ASM
             _.org_3_040E   0x00040e    program     static C:\PIC_projects\ASM\Mood_Lamp_V2.1\Mood_Lamp_V2.X\18F13K50.ASM
             _.org_3_0446   0x000446    program     static C:\PIC_projects\ASM\Mood_Lamp_V2.1\Mood_Lamp_V2.X\18F13K50.ASM
             _.org_3_0476   0x000476    program     static C:\PIC_projects\ASM\Mood_Lamp_V2.1\Mood_Lamp_V2.X\18F13K50.ASM
              _16X4_TABLE   0x000482    program     static C:\PIC_projects\ASM\Mood_Lamp_V2.1\Mood_Lamp_V2.X\18F13K50.ASM
              _48BIT_LFSR   0x000468    program     static C:\PIC_projects\ASM\Mood_Lamp_V2.1\Mood_Lamp_V2.X\18F13K50.ASM
         _8X4_16BIT_TABLE   0x000880    program     static C:\PIC_projects\ASM\Mood_Lamp_V2.1\Mood_Lamp_V2.X\18F13K50.ASM
          _8X4_8BIT_TABLE   0x0008c0    program     static C:\PIC_projects\ASM\Mood_Lamp_V2.1\Mood_Lamp_V2.X\18F13K50.ASM
                  _FILL_B   0x000124    program     static C:\PIC_projects\ASM\Mood_Lamp_V2.1\Mood_Lamp_V2.X\18F13K50.ASM
                  _FILL_G   0x0000e0    program     static C:\PIC_projects\ASM\Mood_Lamp_V2.1\Mood_Lamp_V2.X\18F13K50.ASM
                _FILL_PWM   0x00018c    program     static C:\PIC_projects\ASM\Mood_Lamp_V2.1\Mood_Lamp_V2.X\18F13K50.ASM
             _LOAD_TIMERS   0x000168    program     static C:\PIC_projects\ASM\Mood_Lamp_V2.1\Mood_Lamp_V2.X\18F13K50.ASM
               _TABLE_END   0x0008e0    program     static C:\PIC_projects\ASM\Mood_Lamp_V2.1\Mood_Lamp_V2.X\18F13K50.ASM
                  B1_TIME   0x000060       data     static C:\PIC_projects\ASM\Mood_Lamp_V2.1\Mood_Lamp_V2.X\18F13K50.ASM
                  B2_TIME   0x000060       data     static C:\PIC_projects\ASM\Mood_Lamp_V2.1\Mood_Lamp_V2.X\18F13K50.ASM
                  B3_TIME   0x000060       data     static C:\PIC_projects\ASM\Mood_Lamp_V2.1\Mood_Lamp_V2.X\18F13K50.ASM
                  B4_TIME   0x000060       data     static C:\PIC_projects\ASM\Mood_Lamp_V2.1\Mood_Lamp_V2.X\18F13K50.ASM
                 BSR_TEMP   0x000060       data     static C:\PIC_projects\ASM\Mood_Lamp_V2.1\Mood_Lamp_V2.X\18F13K50.ASM
             B_COEF_POINT   0x0000af       data     static C:\PIC_projects\ASM\Mood_Lamp_V2.1\Mood_Lamp_V2.X\18F13K50.ASM
                  B_COUNT   0x0000af       data     static C:\PIC_projects\ASM\Mood_Lamp_V2.1\Mood_Lamp_V2.X\18F13K50.ASM
               B_IN_POINT   0x0000af       data     static C:\PIC_projects\ASM\Mood_Lamp_V2.1\Mood_Lamp_V2.X\18F13K50.ASM
              B_OUT_POINT   0x0000af       data     static C:\PIC_projects\ASM\Mood_Lamp_V2.1\Mood_Lamp_V2.X\18F13K50.ASM
                     B_P0   0x000077       data     static C:\PIC_projects\ASM\Mood_Lamp_V2.1\Mood_Lamp_V2.X\18F13K50.ASM
                     B_P1   0x000077       data     static C:\PIC_projects\ASM\Mood_Lamp_V2.1\Mood_Lamp_V2.X\18F13K50.ASM
                     B_P2   0x000077       data     static C:\PIC_projects\ASM\Mood_Lamp_V2.1\Mood_Lamp_V2.X\18F13K50.ASM
                     B_P3   0x000077       data     static C:\PIC_projects\ASM\Mood_Lamp_V2.1\Mood_Lamp_V2.X\18F13K50.ASM
               B_RINGBUFF   0x0000af       data     static C:\PIC_projects\ASM\Mood_Lamp_V2.1\Mood_Lamp_V2.X\18F13K50.ASM
                       C0   0x00006f       data     static C:\PIC_projects\ASM\Mood_Lamp_V2.1\Mood_Lamp_V2.X\18F13K50.ASM
                    C0XP0   0x000063       data     static C:\PIC_projects\ASM\Mood_Lamp_V2.1\Mood_Lamp_V2.X\18F13K50.ASM
                       C1   0x000071       data     static C:\PIC_projects\ASM\Mood_Lamp_V2.1\Mood_Lamp_V2.X\18F13K50.ASM
                    C1XP1   0x000066       data     static C:\PIC_projects\ASM\Mood_Lamp_V2.1\Mood_Lamp_V2.X\18F13K50.ASM
                       C2   0x000073       data     static C:\PIC_projects\ASM\Mood_Lamp_V2.1\Mood_Lamp_V2.X\18F13K50.ASM
                    C2XP2   0x000069       data     static C:\PIC_projects\ASM\Mood_Lamp_V2.1\Mood_Lamp_V2.X\18F13K50.ASM
                       C3   0x000075       data     static C:\PIC_projects\ASM\Mood_Lamp_V2.1\Mood_Lamp_V2.X\18F13K50.ASM
                    C3XP3   0x00006c       data     static C:\PIC_projects\ASM\Mood_Lamp_V2.1\Mood_Lamp_V2.X\18F13K50.ASM
               DUMMY_TIME   0x000060       data     static C:\PIC_projects\ASM\Mood_Lamp_V2.1\Mood_Lamp_V2.X\18F13K50.ASM
               EE_ADDRESS   0x000063       data     static C:\PIC_projects\ASM\Mood_Lamp_V2.1\Mood_Lamp_V2.X\18F13K50.ASM
                EE_LENGTH   0x000063       data     static C:\PIC_projects\ASM\Mood_Lamp_V2.1\Mood_Lamp_V2.X\18F13K50.ASM
                    FLAGS   0x000060       data     static C:\PIC_projects\ASM\Mood_Lamp_V2.1\Mood_Lamp_V2.X\18F13K50.ASM
                  G1_TIME   0x000060       data     static C:\PIC_projects\ASM\Mood_Lamp_V2.1\Mood_Lamp_V2.X\18F13K50.ASM
                  G2_TIME   0x000060       data     static C:\PIC_projects\ASM\Mood_Lamp_V2.1\Mood_Lamp_V2.X\18F13K50.ASM
                  G3_TIME   0x000060       data     static C:\PIC_projects\ASM\Mood_Lamp_V2.1\Mood_Lamp_V2.X\18F13K50.ASM
                  G4_TIME   0x000060       data     static C:\PIC_projects\ASM\Mood_Lamp_V2.1\Mood_Lamp_V2.X\18F13K50.ASM
             G_COEF_POINT   0x00009f       data     static C:\PIC_projects\ASM\Mood_Lamp_V2.1\Mood_Lamp_V2.X\18F13K50.ASM
                  G_COUNT   0x00009f       data     static C:\PIC_projects\ASM\Mood_Lamp_V2.1\Mood_Lamp_V2.X\18F13K50.ASM
               G_IN_POINT   0x00009f       data     static C:\PIC_projects\ASM\Mood_Lamp_V2.1\Mood_Lamp_V2.X\18F13K50.ASM
              G_OUT_POINT   0x00009f       data     static C:\PIC_projects\ASM\Mood_Lamp_V2.1\Mood_Lamp_V2.X\18F13K50.ASM
                     G_P0   0x000077       data     static C:\PIC_projects\ASM\Mood_Lamp_V2.1\Mood_Lamp_V2.X\18F13K50.ASM
                     G_P1   0x000077       data     static C:\PIC_projects\ASM\Mood_Lamp_V2.1\Mood_Lamp_V2.X\18F13K50.ASM
                     G_P2   0x000077       data     static C:\PIC_projects\ASM\Mood_Lamp_V2.1\Mood_Lamp_V2.X\18F13K50.ASM
                     G_P3   0x000077       data     static C:\PIC_projects\ASM\Mood_Lamp_V2.1\Mood_Lamp_V2.X\18F13K50.ASM
               G_RINGBUFF   0x00009f       data     static C:\PIC_projects\ASM\Mood_Lamp_V2.1\Mood_Lamp_V2.X\18F13K50.ASM
                  LFSR_01   0x000063       data     static C:\PIC_projects\ASM\Mood_Lamp_V2.1\Mood_Lamp_V2.X\18F13K50.ASM
                  LFSR_02   0x000063       data     static C:\PIC_projects\ASM\Mood_Lamp_V2.1\Mood_Lamp_V2.X\18F13K50.ASM
                  LFSR_03   0x000063       data     static C:\PIC_projects\ASM\Mood_Lamp_V2.1\Mood_Lamp_V2.X\18F13K50.ASM
                  LFSR_04   0x000063       data     static C:\PIC_projects\ASM\Mood_Lamp_V2.1\Mood_Lamp_V2.X\18F13K50.ASM
                  LFSR_05   0x000063       data     static C:\PIC_projects\ASM\Mood_Lamp_V2.1\Mood_Lamp_V2.X\18F13K50.ASM
                       P0   0x000077       data     static C:\PIC_projects\ASM\Mood_Lamp_V2.1\Mood_Lamp_V2.X\18F13K50.ASM
                       P1   0x000077       data     static C:\PIC_projects\ASM\Mood_Lamp_V2.1\Mood_Lamp_V2.X\18F13K50.ASM
                       P2   0x000077       data     static C:\PIC_projects\ASM\Mood_Lamp_V2.1\Mood_Lamp_V2.X\18F13K50.ASM
                       P3   0x000077       data     static C:\PIC_projects\ASM\Mood_Lamp_V2.1\Mood_Lamp_V2.X\18F13K50.ASM
                PWM_COUNT   0x000077       data     static C:\PIC_projects\ASM\Mood_Lamp_V2.1\Mood_Lamp_V2.X\18F13K50.ASM
             PWM_IN_POINT   0x000077       data     static C:\PIC_projects\ASM\Mood_Lamp_V2.1\Mood_Lamp_V2.X\18F13K50.ASM
            PWM_OUT_POINT   0x000077       data     static C:\PIC_projects\ASM\Mood_Lamp_V2.1\Mood_Lamp_V2.X\18F13K50.ASM
                 PWM_PINS   0x000060       data     static C:\PIC_projects\ASM\Mood_Lamp_V2.1\Mood_Lamp_V2.X\18F13K50.ASM
             PWM_RINGBUFF   0x000077       data     static C:\PIC_projects\ASM\Mood_Lamp_V2.1\Mood_Lamp_V2.X\18F13K50.ASM
                  R1_TIME   0x000060       data     static C:\PIC_projects\ASM\Mood_Lamp_V2.1\Mood_Lamp_V2.X\18F13K50.ASM
                  R2_TIME   0x000060       data     static C:\PIC_projects\ASM\Mood_Lamp_V2.1\Mood_Lamp_V2.X\18F13K50.ASM
                  R3_TIME   0x000060       data     static C:\PIC_projects\ASM\Mood_Lamp_V2.1\Mood_Lamp_V2.X\18F13K50.ASM
                  R4_TIME   0x000060       data     static C:\PIC_projects\ASM\Mood_Lamp_V2.1\Mood_Lamp_V2.X\18F13K50.ASM
                     RAND   0x000063       data     static C:\PIC_projects\ASM\Mood_Lamp_V2.1\Mood_Lamp_V2.X\18F13K50.ASM
             R_COEF_POINT   0x00008f       data     static C:\PIC_projects\ASM\Mood_Lamp_V2.1\Mood_Lamp_V2.X\18F13K50.ASM
                  R_COUNT   0x00008f       data     static C:\PIC_projects\ASM\Mood_Lamp_V2.1\Mood_Lamp_V2.X\18F13K50.ASM
               R_IN_POINT   0x00008f       data     static C:\PIC_projects\ASM\Mood_Lamp_V2.1\Mood_Lamp_V2.X\18F13K50.ASM
              R_OUT_POINT   0x00008f       data     static C:\PIC_projects\ASM\Mood_Lamp_V2.1\Mood_Lamp_V2.X\18F13K50.ASM
                     R_P0   0x000077       data     static C:\PIC_projects\ASM\Mood_Lamp_V2.1\Mood_Lamp_V2.X\18F13K50.ASM
                     R_P1   0x000077       data     static C:\PIC_projects\ASM\Mood_Lamp_V2.1\Mood_Lamp_V2.X\18F13K50.ASM
                     R_P2   0x000077       data     static C:\PIC_projects\ASM\Mood_Lamp_V2.1\Mood_Lamp_V2.X\18F13K50.ASM
                     R_P3   0x000077       data     static C:\PIC_projects\ASM\Mood_Lamp_V2.1\Mood_Lamp_V2.X\18F13K50.ASM
               R_RINGBUFF   0x00008f       data     static C:\PIC_projects\ASM\Mood_Lamp_V2.1\Mood_Lamp_V2.X\18F13K50.ASM
              STATUS_TEMP   0x000060       data     static C:\PIC_projects\ASM\Mood_Lamp_V2.1\Mood_Lamp_V2.X\18F13K50.ASM
                   W_TEMP   0x000060       data     static C:\PIC_projects\ASM\Mood_Lamp_V2.1\Mood_Lamp_V2.X\18F13K50.ASM
                    _CHAR   0x000077       data     static C:\PIC_projects\ASM\Mood_Lamp_V2.1\Mood_Lamp_V2.X\18F13K50.ASM
              _COEF_POINT   0x000077       data     static C:\PIC_projects\ASM\Mood_Lamp_V2.1\Mood_Lamp_V2.X\18F13K50.ASM
                   _COUNT   0x000077       data     static C:\PIC_projects\ASM\Mood_Lamp_V2.1\Mood_Lamp_V2.X\18F13K50.ASM
               _OUT_POINT   0x000077       data     static C:\PIC_projects\ASM\Mood_Lamp_V2.1\Mood_Lamp_V2.X\18F13K50.ASM
              _RINGBUFF_P   0x000077       data     static C:\PIC_projects\ASM\Mood_Lamp_V2.1\Mood_Lamp_V2.X\18F13K50.ASM



                              Symbols - Sorted by Address
                     Name    Address   Location    Storage File                     
                ---------  ---------  ---------  --------- ---------                
                 RES_VECT   0x000000    program     static C:\PIC_projects\ASM\Mood_Lamp_V2.1\Mood_Lamp_V2.X\18F13K50.ASM
                     ISRH   0x000008    program     static C:\PIC_projects\ASM\Mood_Lamp_V2.1\Mood_Lamp_V2.X\18F13K50.ASM
                     ISRL   0x000018    program     static C:\PIC_projects\ASM\Mood_Lamp_V2.1\Mood_Lamp_V2.X\18F13K50.ASM
                  LOW_ISR   0x00001c    program     static C:\PIC_projects\ASM\Mood_Lamp_V2.1\Mood_Lamp_V2.X\18F13K50.ASM
                  END_INT   0x00003a    program     static C:\PIC_projects\ASM\Mood_Lamp_V2.1\Mood_Lamp_V2.X\18F13K50.ASM
                    START   0x000046    program     static C:\PIC_projects\ASM\Mood_Lamp_V2.1\Mood_Lamp_V2.X\18F13K50.ASM
             _.org_3_004E   0x00004e    program     static C:\PIC_projects\ASM\Mood_Lamp_V2.1\Mood_Lamp_V2.X\18F13K50.ASM
             _.org_3_0052   0x000052    program     static C:\PIC_projects\ASM\Mood_Lamp_V2.1\Mood_Lamp_V2.X\18F13K50.ASM
             _.org_3_0056   0x000056    program     static C:\PIC_projects\ASM\Mood_Lamp_V2.1\Mood_Lamp_V2.X\18F13K50.ASM
                     MAIN   0x00009c    program     static C:\PIC_projects\ASM\Mood_Lamp_V2.1\Mood_Lamp_V2.X\18F13K50.ASM
                  _FILL_G   0x0000e0    program     static C:\PIC_projects\ASM\Mood_Lamp_V2.1\Mood_Lamp_V2.X\18F13K50.ASM
                  _FILL_B   0x000124    program     static C:\PIC_projects\ASM\Mood_Lamp_V2.1\Mood_Lamp_V2.X\18F13K50.ASM
             _LOAD_TIMERS   0x000168    program     static C:\PIC_projects\ASM\Mood_Lamp_V2.1\Mood_Lamp_V2.X\18F13K50.ASM
                _FILL_PWM   0x00018c    program     static C:\PIC_projects\ASM\Mood_Lamp_V2.1\Mood_Lamp_V2.X\18F13K50.ASM
                TIME_DOWN   0x0001ae    program     static C:\PIC_projects\ASM\Mood_Lamp_V2.1\Mood_Lamp_V2.X\18F13K50.ASM
                  TIME_UP   0x000226    program     static C:\PIC_projects\ASM\Mood_Lamp_V2.1\Mood_Lamp_V2.X\18F13K50.ASM
              FILL_BUFFER   0x00023c    program     static C:\PIC_projects\ASM\Mood_Lamp_V2.1\Mood_Lamp_V2.X\18F13K50.ASM
                 GEN_LOOP   0x000240    program     static C:\PIC_projects\ASM\Mood_Lamp_V2.1\Mood_Lamp_V2.X\18F13K50.ASM
            CUBIC_HERMITE   0x00024e    program     static C:\PIC_projects\ASM\Mood_Lamp_V2.1\Mood_Lamp_V2.X\18F13K50.ASM
             WRITE_BUFFER   0x000268    program     static C:\PIC_projects\ASM\Mood_Lamp_V2.1\Mood_Lamp_V2.X\18F13K50.ASM
                 ITTERATE   0x000270    program     static C:\PIC_projects\ASM\Mood_Lamp_V2.1\Mood_Lamp_V2.X\18F13K50.ASM
             _.org_3_0286   0x000286    program     static C:\PIC_projects\ASM\Mood_Lamp_V2.1\Mood_Lamp_V2.X\18F13K50.ASM
             _.org_3_02A0   0x0002a0    program     static C:\PIC_projects\ASM\Mood_Lamp_V2.1\Mood_Lamp_V2.X\18F13K50.ASM
             _.org_3_02BA   0x0002ba    program     static C:\PIC_projects\ASM\Mood_Lamp_V2.1\Mood_Lamp_V2.X\18F13K50.ASM
             _.org_3_02D4   0x0002d4    program     static C:\PIC_projects\ASM\Mood_Lamp_V2.1\Mood_Lamp_V2.X\18F13K50.ASM
             _.org_3_02F0   0x0002f0    program     static C:\PIC_projects\ASM\Mood_Lamp_V2.1\Mood_Lamp_V2.X\18F13K50.ASM
             _.org_3_0304   0x000304    program     static C:\PIC_projects\ASM\Mood_Lamp_V2.1\Mood_Lamp_V2.X\18F13K50.ASM
                 GET_COEF   0x000318    program     static C:\PIC_projects\ASM\Mood_Lamp_V2.1\Mood_Lamp_V2.X\18F13K50.ASM
             _.org_3_031A   0x00031a    program     static C:\PIC_projects\ASM\Mood_Lamp_V2.1\Mood_Lamp_V2.X\18F13K50.ASM
        WRITE_RING_BUFFER   0x000368    program     static C:\PIC_projects\ASM\Mood_Lamp_V2.1\Mood_Lamp_V2.X\18F13K50.ASM
               CANT_WRITE   0x000382    program     static C:\PIC_projects\ASM\Mood_Lamp_V2.1\Mood_Lamp_V2.X\18F13K50.ASM
         WRITE_PWM_BUFFER   0x000384    program     static C:\PIC_projects\ASM\Mood_Lamp_V2.1\Mood_Lamp_V2.X\18F13K50.ASM
           CANT_WRITE_PWM   0x00039e    program     static C:\PIC_projects\ASM\Mood_Lamp_V2.1\Mood_Lamp_V2.X\18F13K50.ASM
          READ_BUFFER_PWM   0x0003a0    program     static C:\PIC_projects\ASM\Mood_Lamp_V2.1\Mood_Lamp_V2.X\18F13K50.ASM
             _.org_3_03A2   0x0003a2    program     static C:\PIC_projects\ASM\Mood_Lamp_V2.1\Mood_Lamp_V2.X\18F13K50.ASM
          FINISH_READ_PWM   0x0003be    program     static C:\PIC_projects\ASM\Mood_Lamp_V2.1\Mood_Lamp_V2.X\18F13K50.ASM
           READ_PWM_ERROR   0x0003c2    program     static C:\PIC_projects\ASM\Mood_Lamp_V2.1\Mood_Lamp_V2.X\18F13K50.ASM
            READ_BUFFER_R   0x0003c4    program     static C:\PIC_projects\ASM\Mood_Lamp_V2.1\Mood_Lamp_V2.X\18F13K50.ASM
             _.org_3_03C6   0x0003c6    program     static C:\PIC_projects\ASM\Mood_Lamp_V2.1\Mood_Lamp_V2.X\18F13K50.ASM
            FINISH_READ_R   0x0003e2    program     static C:\PIC_projects\ASM\Mood_Lamp_V2.1\Mood_Lamp_V2.X\18F13K50.ASM
             READ_R_ERROR   0x0003e6    program     static C:\PIC_projects\ASM\Mood_Lamp_V2.1\Mood_Lamp_V2.X\18F13K50.ASM
            READ_BUFFER_G   0x0003e8    program     static C:\PIC_projects\ASM\Mood_Lamp_V2.1\Mood_Lamp_V2.X\18F13K50.ASM
             _.org_3_03EA   0x0003ea    program     static C:\PIC_projects\ASM\Mood_Lamp_V2.1\Mood_Lamp_V2.X\18F13K50.ASM
            FINISH_READ_G   0x000406    program     static C:\PIC_projects\ASM\Mood_Lamp_V2.1\Mood_Lamp_V2.X\18F13K50.ASM
             READ_G_ERROR   0x00040a    program     static C:\PIC_projects\ASM\Mood_Lamp_V2.1\Mood_Lamp_V2.X\18F13K50.ASM
            READ_BUFFER_B   0x00040c    program     static C:\PIC_projects\ASM\Mood_Lamp_V2.1\Mood_Lamp_V2.X\18F13K50.ASM
             _.org_3_040E   0x00040e    program     static C:\PIC_projects\ASM\Mood_Lamp_V2.1\Mood_Lamp_V2.X\18F13K50.ASM
            FINISH_READ_B   0x00042a    program     static C:\PIC_projects\ASM\Mood_Lamp_V2.1\Mood_Lamp_V2.X\18F13K50.ASM
             READ_B_ERROR   0x00042e    program     static C:\PIC_projects\ASM\Mood_Lamp_V2.1\Mood_Lamp_V2.X\18F13K50.ASM
                  EE_READ   0x000430    program     static C:\PIC_projects\ASM\Mood_Lamp_V2.1\Mood_Lamp_V2.X\18F13K50.ASM
             _.org_3_0446   0x000446    program     static C:\PIC_projects\ASM\Mood_Lamp_V2.1\Mood_Lamp_V2.X\18F13K50.ASM
               GEN_RANDOM   0x00044a    program     static C:\PIC_projects\ASM\Mood_Lamp_V2.1\Mood_Lamp_V2.X\18F13K50.ASM
              _48BIT_LFSR   0x000468    program     static C:\PIC_projects\ASM\Mood_Lamp_V2.1\Mood_Lamp_V2.X\18F13K50.ASM
             _.org_3_0476   0x000476    program     static C:\PIC_projects\ASM\Mood_Lamp_V2.1\Mood_Lamp_V2.X\18F13K50.ASM
              _16X4_TABLE   0x000482    program     static C:\PIC_projects\ASM\Mood_Lamp_V2.1\Mood_Lamp_V2.X\18F13K50.ASM
         _8X4_16BIT_TABLE   0x000880    program     static C:\PIC_projects\ASM\Mood_Lamp_V2.1\Mood_Lamp_V2.X\18F13K50.ASM
          _8X4_8BIT_TABLE   0x0008c0    program     static C:\PIC_projects\ASM\Mood_Lamp_V2.1\Mood_Lamp_V2.X\18F13K50.ASM
               _TABLE_END   0x0008e0    program     static C:\PIC_projects\ASM\Mood_Lamp_V2.1\Mood_Lamp_V2.X\18F13K50.ASM
                   DATAEE   0xf00000    program     static C:\PIC_projects\ASM\Mood_Lamp_V2.1\Mood_Lamp_V2.X\18F13K50.ASM
                    FLAGS   0x000060       data     static C:\PIC_projects\ASM\Mood_Lamp_V2.1\Mood_Lamp_V2.X\18F13K50.ASM
               DUMMY_TIME   0x000060       data     static C:\PIC_projects\ASM\Mood_Lamp_V2.1\Mood_Lamp_V2.X\18F13K50.ASM
                  G1_TIME   0x000060       data     static C:\PIC_projects\ASM\Mood_Lamp_V2.1\Mood_Lamp_V2.X\18F13K50.ASM
                  G2_TIME   0x000060       data     static C:\PIC_projects\ASM\Mood_Lamp_V2.1\Mood_Lamp_V2.X\18F13K50.ASM
                  G3_TIME   0x000060       data     static C:\PIC_projects\ASM\Mood_Lamp_V2.1\Mood_Lamp_V2.X\18F13K50.ASM
                  G4_TIME   0x000060       data     static C:\PIC_projects\ASM\Mood_Lamp_V2.1\Mood_Lamp_V2.X\18F13K50.ASM
                  R4_TIME   0x000060       data     static C:\PIC_projects\ASM\Mood_Lamp_V2.1\Mood_Lamp_V2.X\18F13K50.ASM
                  R3_TIME   0x000060       data     static C:\PIC_projects\ASM\Mood_Lamp_V2.1\Mood_Lamp_V2.X\18F13K50.ASM
                  R2_TIME   0x000060       data     static C:\PIC_projects\ASM\Mood_Lamp_V2.1\Mood_Lamp_V2.X\18F13K50.ASM
                  R1_TIME   0x000060       data     static C:\PIC_projects\ASM\Mood_Lamp_V2.1\Mood_Lamp_V2.X\18F13K50.ASM
                 PWM_PINS   0x000060       data     static C:\PIC_projects\ASM\Mood_Lamp_V2.1\Mood_Lamp_V2.X\18F13K50.ASM
              STATUS_TEMP   0x000060       data     static C:\PIC_projects\ASM\Mood_Lamp_V2.1\Mood_Lamp_V2.X\18F13K50.ASM
                   W_TEMP   0x000060       data     static C:\PIC_projects\ASM\Mood_Lamp_V2.1\Mood_Lamp_V2.X\18F13K50.ASM
                 BSR_TEMP   0x000060       data     static C:\PIC_projects\ASM\Mood_Lamp_V2.1\Mood_Lamp_V2.X\18F13K50.ASM
                  B4_TIME   0x000060       data     static C:\PIC_projects\ASM\Mood_Lamp_V2.1\Mood_Lamp_V2.X\18F13K50.ASM
                  B3_TIME   0x000060       data     static C:\PIC_projects\ASM\Mood_Lamp_V2.1\Mood_Lamp_V2.X\18F13K50.ASM
                  B2_TIME   0x000060       data     static C:\PIC_projects\ASM\Mood_Lamp_V2.1\Mood_Lamp_V2.X\18F13K50.ASM
                  B1_TIME   0x000060       data     static C:\PIC_projects\ASM\Mood_Lamp_V2.1\Mood_Lamp_V2.X\18F13K50.ASM
                  LFSR_01   0x000063       data     static C:\PIC_projects\ASM\Mood_Lamp_V2.1\Mood_Lamp_V2.X\18F13K50.ASM
                  LFSR_02   0x000063       data     static C:\PIC_projects\ASM\Mood_Lamp_V2.1\Mood_Lamp_V2.X\18F13K50.ASM
                  LFSR_03   0x000063       data     static C:\PIC_projects\ASM\Mood_Lamp_V2.1\Mood_Lamp_V2.X\18F13K50.ASM
                  LFSR_04   0x000063       data     static C:\PIC_projects\ASM\Mood_Lamp_V2.1\Mood_Lamp_V2.X\18F13K50.ASM
                     RAND   0x000063       data     static C:\PIC_projects\ASM\Mood_Lamp_V2.1\Mood_Lamp_V2.X\18F13K50.ASM
                  LFSR_05   0x000063       data     static C:\PIC_projects\ASM\Mood_Lamp_V2.1\Mood_Lamp_V2.X\18F13K50.ASM
                EE_LENGTH   0x000063       data     static C:\PIC_projects\ASM\Mood_Lamp_V2.1\Mood_Lamp_V2.X\18F13K50.ASM
               EE_ADDRESS   0x000063       data     static C:\PIC_projects\ASM\Mood_Lamp_V2.1\Mood_Lamp_V2.X\18F13K50.ASM
                    C0XP0   0x000063       data     static C:\PIC_projects\ASM\Mood_Lamp_V2.1\Mood_Lamp_V2.X\18F13K50.ASM
                    C1XP1   0x000066       data     static C:\PIC_projects\ASM\Mood_Lamp_V2.1\Mood_Lamp_V2.X\18F13K50.ASM
                    C2XP2   0x000069       data     static C:\PIC_projects\ASM\Mood_Lamp_V2.1\Mood_Lamp_V2.X\18F13K50.ASM
                    C3XP3   0x00006c       data     static C:\PIC_projects\ASM\Mood_Lamp_V2.1\Mood_Lamp_V2.X\18F13K50.ASM
                       C0   0x00006f       data     static C:\PIC_projects\ASM\Mood_Lamp_V2.1\Mood_Lamp_V2.X\18F13K50.ASM
                       C1   0x000071       data     static C:\PIC_projects\ASM\Mood_Lamp_V2.1\Mood_Lamp_V2.X\18F13K50.ASM
                       C2   0x000073       data     static C:\PIC_projects\ASM\Mood_Lamp_V2.1\Mood_Lamp_V2.X\18F13K50.ASM
                       C3   0x000075       data     static C:\PIC_projects\ASM\Mood_Lamp_V2.1\Mood_Lamp_V2.X\18F13K50.ASM
                     R_P0   0x000077       data     static C:\PIC_projects\ASM\Mood_Lamp_V2.1\Mood_Lamp_V2.X\18F13K50.ASM
                     R_P1   0x000077       data     static C:\PIC_projects\ASM\Mood_Lamp_V2.1\Mood_Lamp_V2.X\18F13K50.ASM
                     R_P2   0x000077       data     static C:\PIC_projects\ASM\Mood_Lamp_V2.1\Mood_Lamp_V2.X\18F13K50.ASM
             PWM_RINGBUFF   0x000077       data     static C:\PIC_projects\ASM\Mood_Lamp_V2.1\Mood_Lamp_V2.X\18F13K50.ASM
                     R_P3   0x000077       data     static C:\PIC_projects\ASM\Mood_Lamp_V2.1\Mood_Lamp_V2.X\18F13K50.ASM
                    _CHAR   0x000077       data     static C:\PIC_projects\ASM\Mood_Lamp_V2.1\Mood_Lamp_V2.X\18F13K50.ASM
              _COEF_POINT   0x000077       data     static C:\PIC_projects\ASM\Mood_Lamp_V2.1\Mood_Lamp_V2.X\18F13K50.ASM
                   _COUNT   0x000077       data     static C:\PIC_projects\ASM\Mood_Lamp_V2.1\Mood_Lamp_V2.X\18F13K50.ASM
               _OUT_POINT   0x000077       data     static C:\PIC_projects\ASM\Mood_Lamp_V2.1\Mood_Lamp_V2.X\18F13K50.ASM
              _RINGBUFF_P   0x000077       data     static C:\PIC_projects\ASM\Mood_Lamp_V2.1\Mood_Lamp_V2.X\18F13K50.ASM
            PWM_OUT_POINT   0x000077       data     static C:\PIC_projects\ASM\Mood_Lamp_V2.1\Mood_Lamp_V2.X\18F13K50.ASM
             PWM_IN_POINT   0x000077       data     static C:\PIC_projects\ASM\Mood_Lamp_V2.1\Mood_Lamp_V2.X\18F13K50.ASM
                PWM_COUNT   0x000077       data     static C:\PIC_projects\ASM\Mood_Lamp_V2.1\Mood_Lamp_V2.X\18F13K50.ASM
                       P3   0x000077       data     static C:\PIC_projects\ASM\Mood_Lamp_V2.1\Mood_Lamp_V2.X\18F13K50.ASM
                       P2   0x000077       data     static C:\PIC_projects\ASM\Mood_Lamp_V2.1\Mood_Lamp_V2.X\18F13K50.ASM
                       P1   0x000077       data     static C:\PIC_projects\ASM\Mood_Lamp_V2.1\Mood_Lamp_V2.X\18F13K50.ASM
                       P0   0x000077       data     static C:\PIC_projects\ASM\Mood_Lamp_V2.1\Mood_Lamp_V2.X\18F13K50.ASM
                     B_P0   0x000077       data     static C:\PIC_projects\ASM\Mood_Lamp_V2.1\Mood_Lamp_V2.X\18F13K50.ASM
                     G_P3   0x000077       data     static C:\PIC_projects\ASM\Mood_Lamp_V2.1\Mood_Lamp_V2.X\18F13K50.ASM
                     G_P2   0x000077       data     static C:\PIC_projects\ASM\Mood_Lamp_V2.1\Mood_Lamp_V2.X\18F13K50.ASM
                     G_P1   0x000077       data     static C:\PIC_projects\ASM\Mood_Lamp_V2.1\Mood_Lamp_V2.X\18F13K50.ASM
                     G_P0   0x000077       data     static C:\PIC_projects\ASM\Mood_Lamp_V2.1\Mood_Lamp_V2.X\18F13K50.ASM
                     B_P1   0x000077       data     static C:\PIC_projects\ASM\Mood_Lamp_V2.1\Mood_Lamp_V2.X\18F13K50.ASM
                     B_P2   0x000077       data     static C:\PIC_projects\ASM\Mood_Lamp_V2.1\Mood_Lamp_V2.X\18F13K50.ASM
                     B_P3   0x000077       data     static C:\PIC_projects\ASM\Mood_Lamp_V2.1\Mood_Lamp_V2.X\18F13K50.ASM
               R_RINGBUFF   0x00008f       data     static C:\PIC_projects\ASM\Mood_Lamp_V2.1\Mood_Lamp_V2.X\18F13K50.ASM
              R_OUT_POINT   0x00008f       data     static C:\PIC_projects\ASM\Mood_Lamp_V2.1\Mood_Lamp_V2.X\18F13K50.ASM
               R_IN_POINT   0x00008f       data     static C:\PIC_projects\ASM\Mood_Lamp_V2.1\Mood_Lamp_V2.X\18F13K50.ASM
                  R_COUNT   0x00008f       data     static C:\PIC_projects\ASM\Mood_Lamp_V2.1\Mood_Lamp_V2.X\18F13K50.ASM
             R_COEF_POINT   0x00008f       data     static C:\PIC_projects\ASM\Mood_Lamp_V2.1\Mood_Lamp_V2.X\18F13K50.ASM
                  G_COUNT   0x00009f       data     static C:\PIC_projects\ASM\Mood_Lamp_V2.1\Mood_Lamp_V2.X\18F13K50.ASM
             G_COEF_POINT   0x00009f       data     static C:\PIC_projects\ASM\Mood_Lamp_V2.1\Mood_Lamp_V2.X\18F13K50.ASM
               G_IN_POINT   0x00009f       data     static C:\PIC_projects\ASM\Mood_Lamp_V2.1\Mood_Lamp_V2.X\18F13K50.ASM
              G_OUT_POINT   0x00009f       data     static C:\PIC_projects\ASM\Mood_Lamp_V2.1\Mood_Lamp_V2.X\18F13K50.ASM
               G_RINGBUFF   0x00009f       data     static C:\PIC_projects\ASM\Mood_Lamp_V2.1\Mood_Lamp_V2.X\18F13K50.ASM
               B_RINGBUFF   0x0000af       data     static C:\PIC_projects\ASM\Mood_Lamp_V2.1\Mood_Lamp_V2.X\18F13K50.ASM
              B_OUT_POINT   0x0000af       data     static C:\PIC_projects\ASM\Mood_Lamp_V2.1\Mood_Lamp_V2.X\18F13K50.ASM
               B_IN_POINT   0x0000af       data     static C:\PIC_projects\ASM\Mood_Lamp_V2.1\Mood_Lamp_V2.X\18F13K50.ASM
                  B_COUNT   0x0000af       data     static C:\PIC_projects\ASM\Mood_Lamp_V2.1\Mood_Lamp_V2.X\18F13K50.ASM
             B_COEF_POINT   0x0000af       data     static C:\PIC_projects\ASM\Mood_Lamp_V2.1\Mood_Lamp_V2.X\18F13K50.ASM


